CCS PCM C Compiler, Version 5.051, 43599               01-Apr-26 12:22

               Filename:   D:\VI-XU-LY\Overview of PIC 16F887\LEDCHOPTAT.lst

               ROM used:   111 words (1%)
                           Largest free fragment is 2048
               RAM used:   8 (2%) at main() level
                           9 (2%) worst case
               Stack used: 0 locations
               Stack size: 8

*
0000:  MOVLW  00
0001:  MOVWF  0A
0002:  GOTO   018
0003:  NOP
.................... //!BAI TAP CAU A 
.................... //!#INCLUDE <16F887.H> // KHAI BAO THU VIEN 
.................... //!#FUSES HS, PUT // XUNG NGOAI 
.................... //!#USE DELAY(CLOCK=20M) 
.................... //! 
.................... //!VOID MAIN(){ 
.................... //!   SET_TRIS_D(0X00); 
.................... //!   OUTPUT_D(0X81); 
.................... //!   DELAY_MS(1000); 
.................... //! 
.................... //!   WHILE(TRUE){ 
.................... //!      OUTPUT_D(0XFF); 
.................... //!      DELAY_MS(1000); 
.................... //! 
.................... //!      OUTPUT_D(0X00); 
.................... //!      DELAY_MS(1000); 
.................... //!       
.................... //!      OUTPUT_D(0XF0); 
.................... //!      DELAY_MS(1000); 
.................... //!       
.................... //!      OUTPUT_D(0X55); 
.................... //!      DELAY_MS(1000); 
.................... //!       
.................... //!   } 
.................... //!} 
....................  
....................  
.................... //! BAI TAP CAU B 
.................... //!#INCLUDE <16F887.H> // KHAI BAO THU VIEN 
.................... //!#FUSES INTRC // XUNG NOI 
.................... //!#USE DELAY(CLOCK=8M) 
.................... //!UNSiGNED INT8 I = 0; 
.................... //! 
.................... //!VOID MAIN(){ 
.................... //!   SET_TRIS_D(0X00); 
.................... //!    
.................... //!   OUTPUT_D(0X00); 
.................... //!   DELAY_MS(1000); 
.................... //! 
.................... //!   WHILE(TRUE){ 
.................... //!      FOR (I = 0; I <= 2; I++){ 
.................... //!         OUTPUT_D(0XFF); 
.................... //!         DELAY_MS(500); 
.................... //!         OUTPUT_D(0X00); 
.................... //!         DELAY_MS(500); 
.................... //!      } 
.................... //!      OUTPUT_D(0X81); 
.................... //!      DELAY_MS(1000); 
.................... //!   } 
.................... //!} 
....................  
.................... #INCLUDE <16F887.H> // KHAI BAO THU VIEN 
.................... //////////// Standard Header file for the PIC16F887 device //////////////// 
.................... /////////////////////////////////////////////////////////////////////////// 
.................... ////        (C) Copyright 1996, 2014 Custom Computer Services          //// 
.................... //// This source code may only be used by licensed users of the CCS C  //// 
.................... //// compiler.  This source code may only be distributed to other      //// 
.................... //// licensed users of the CCS C compiler.  No other use, reproduction //// 
.................... //// or distribution is permitted without written permission.          //// 
.................... //// Derivative programs created using this software in object code    //// 
.................... //// form are not restricted in any way.                               //// 
.................... /////////////////////////////////////////////////////////////////////////// 
.................... #device PIC16F887 
....................  
.................... #list 
....................  
.................... #FUSES INTRC // XUNG NOI 
.................... #USE DELAY(CLOCK=8M) 
0004:  MOVLW  23
0005:  MOVWF  04
0006:  BCF    03.7
0007:  MOVF   00,W
0008:  BTFSC  03.2
0009:  GOTO   017
000A:  MOVLW  02
000B:  MOVWF  78
000C:  CLRF   77
000D:  DECFSZ 77,F
000E:  GOTO   00D
000F:  DECFSZ 78,F
0010:  GOTO   00C
0011:  MOVLW  97
0012:  MOVWF  77
0013:  DECFSZ 77,F
0014:  GOTO   013
0015:  DECFSZ 00,F
0016:  GOTO   00A
0017:  RETURN
.................... UNSiGNED INT8 I = 0; 
.................... UNSiGNED INT8 X = 0; 
....................  
.................... VOID MAIN(){ 
0018:  MOVF   03,W
0019:  ANDLW  1F
001A:  MOVWF  03
001B:  MOVLW  71
001C:  BSF    03.5
001D:  MOVWF  0F
001E:  CLRF   10
001F:  MOVF   0F,W
0020:  BCF    03.5
0021:  CLRF   20
0022:  CLRF   21
0023:  BSF    03.5
0024:  BSF    03.6
0025:  MOVF   09,W
0026:  ANDLW  C0
0027:  MOVWF  09
0028:  BCF    03.6
0029:  BCF    1F.4
002A:  BCF    1F.5
002B:  MOVLW  00
002C:  BSF    03.6
002D:  MOVWF  08
002E:  BCF    03.5
002F:  CLRF   07
0030:  CLRF   08
0031:  CLRF   09
0032:  BCF    03.7
....................    SET_TRIS_D(0X00); 
0033:  MOVLW  00
0034:  BSF    03.5
0035:  BCF    03.6
0036:  MOVWF  08
....................     
....................    OUTPUT_D(0X00); 
0037:  CLRF   08
0038:  BCF    03.5
0039:  CLRF   08
....................    DELAY_MS(1000); 
003A:  MOVLW  04
003B:  MOVWF  22
003C:  MOVLW  FA
003D:  MOVWF  23
003E:  CALL   004
003F:  DECFSZ 22,F
0040:  GOTO   03C
....................  
....................    WHILE(TRUE){ 
....................       FOR (I = 0; I <= 7; I++){ 
0041:  CLRF   20
0042:  MOVF   20,W
0043:  SUBLW  07
0044:  BTFSS  03.0
0045:  GOTO   058
....................          X = (X >> 1) + 0X80; 
0046:  BCF    03.0
0047:  RRF    21,W
0048:  ADDLW  80
0049:  MOVWF  21
....................          OUTPUT_D(X); 
004A:  BSF    03.5
004B:  CLRF   08
004C:  BCF    03.5
004D:  MOVF   21,W
004E:  MOVWF  08
....................          DELAY_MS(500); 
004F:  MOVLW  02
0050:  MOVWF  22
0051:  MOVLW  FA
0052:  MOVWF  23
0053:  CALL   004
0054:  DECFSZ 22,F
0055:  GOTO   051
0056:  INCF   20,F
0057:  GOTO   042
....................       } 
....................       FOR (I = 0; I <= 7; I++){ 
0058:  CLRF   20
0059:  MOVF   20,W
005A:  SUBLW  07
005B:  BTFSS  03.0
005C:  GOTO   06D
....................          X = (X << 1); 
005D:  BCF    03.0
005E:  RLF    21,F
....................          OUTPUT_D(X); 
005F:  BSF    03.5
0060:  CLRF   08
0061:  BCF    03.5
0062:  MOVF   21,W
0063:  MOVWF  08
....................          DELAY_MS(500); 
0064:  MOVLW  02
0065:  MOVWF  22
0066:  MOVLW  FA
0067:  MOVWF  23
0068:  CALL   004
0069:  DECFSZ 22,F
006A:  GOTO   066
006B:  INCF   20,F
006C:  GOTO   059
....................       } 
006D:  GOTO   041
....................    } 
.................... } 
006E:  SLEEP

Configuration Fuses:
   Word  1: 2FE5   INTRC NOWDT PUT MCLR NOPROTECT NOCPD BROWNOUT IESO FCMEN NOLVP NODEBUG
   Word  2: 0700   BORV40 NOWRT
